target datalayout = "e-m:e-p270:32:32-p271:32:32-p272:64:64-i64:64-i128:128-f80:128-n8:16:32:64-S128"
target triple = "x86_64-pc-linux-gnu"

%struct.slurm_step_id_msg = type { i64, i32, i32, i32 }
%struct.step_record_t = type { i32, ptr, ptr, ptr, i32, ptr, ptr, i32, i32, i32, i32, i16, i16, ptr, i16, i32, ptr, i32, ptr, ptr, ptr, ptr, ptr, ptr, ptr, ptr, ptr, i64, i16, i64, i16, ptr, i16, ptr, i32, i64, i32, ptr, i32, i32, %struct.slurm_step_id_msg, ptr, ptr, ptr, ptr, i16, i64, i64, ptr, ptr, ptr, ptr, ptr, ptr, ptr, ptr }

@.str = private unnamed_addr constant [12 x i8] c"srun_comm.c\00", align 1
@__func__._srun_set_addr = private unnamed_addr constant [15 x i8] c"_srun_set_addr\00", align 1

; Function Attrs: nounwind uwtable
define dso_local ptr @_srun_set_addr(ptr noundef %0) #0 {
  %2 = alloca ptr, align 8
  %3 = alloca ptr, align 8
  %4 = alloca ptr, align 8
  store ptr %0, ptr %2, align 8
  call void @llvm.lifetime.start.p0(i64 8, ptr %3) #6
  call void @llvm.lifetime.start.p0(i64 8, ptr %4) #6
  %5 = call ptr @slurm_xcalloc(i64 noundef 1, i64 noundef 128, i1 noundef zeroext true, i1 noundef zeroext false, ptr noundef @.str, i32 noundef 114, ptr noundef @__func__._srun_set_addr)
  store ptr %5, ptr %4, align 8
  %6 = load ptr, ptr %2, align 8
  %7 = getelementptr inbounds nuw %struct.step_record_t, ptr %6, i32 0, i32 20
  %8 = load ptr, ptr %7, align 8
  %9 = call ptr @slurm_conf_get_nodeaddr(ptr noundef %8)
  store ptr %9, ptr %3, align 8
  %10 = icmp ne ptr %9, null
  br i1 %10, label %11, label %17

11:                                               ; preds = %1
  %12 = load ptr, ptr %4, align 8
  %13 = load ptr, ptr %2, align 8
  %14 = getelementptr inbounds nuw %struct.step_record_t, ptr %13, i32 0, i32 28
  %15 = load i16, ptr %14, align 8
  %16 = load ptr, ptr %3, align 8
  call void @slurm_set_addr(ptr noundef %12, i16 noundef zeroext %15, ptr noundef %16)
  call void @slurm_xfree(ptr noundef %3)
  br label %25

17:                                               ; preds = %1
  %18 = load ptr, ptr %4, align 8
  %19 = load ptr, ptr %2, align 8
  %20 = getelementptr inbounds nuw %struct.step_record_t, ptr %19, i32 0, i32 28
  %21 = load i16, ptr %20, align 8
  %22 = load ptr, ptr %2, align 8
  %23 = getelementptr inbounds nuw %struct.step_record_t, ptr %22, i32 0, i32 20
  %24 = load ptr, ptr %23, align 8
  call void @slurm_set_addr(ptr noundef %18, i16 noundef zeroext %21, ptr noundef %24)
  br label %25

25:                                               ; preds = %17, %11
  %26 = load ptr, ptr %4, align 8
  call void @llvm.lifetime.end.p0(i64 8, ptr %4) #6
  call void @llvm.lifetime.end.p0(i64 8, ptr %3) #6
  ret ptr %26
}