; Function Attrs: nounwind uwtable
define dso_local ptr @_srun_set_addr(ptr noundef readonly captures(none) %0) local_unnamed_addr #0 {
  %2 = alloca ptr, align 8
  call void @llvm.lifetime.start.p0(i64 8, ptr nonnull %2) #6
  %3 = tail call ptr @slurm_xcalloc(i64 noundef 1, i64 noundef 128, i1 noundef zeroext true, i1 noundef zeroext false, ptr noundef nonnull @.str, i32 noundef 114, ptr noundef nonnull @__func__._srun_set_addr) #6
  %4 = getelementptr inbounds nuw i8, ptr %0, i64 128
  %5 = load ptr, ptr %4, align 8
  %6 = tail call ptr @slurm_conf_get_nodeaddr(ptr noundef %5) #6
  store ptr %6, ptr %2, align 8
  %.not = icmp eq ptr %6, null
  %7 = getelementptr inbounds nuw i8, ptr %0, i64 192
  %8 = load i16, ptr %7, align 8
  br i1 %.not, label %10, label %9

9:                                                ; preds = %1
  tail call void @slurm_set_addr(ptr noundef %3, i16 noundef zeroext %8, ptr noundef nonnull %6) #6
  call void @slurm_xfree(ptr noundef nonnull %2) #6
  br label %12

10:                                               ; preds = %1
  %11 = load ptr, ptr %4, align 8
  tail call void @slurm_set_addr(ptr noundef %3, i16 noundef zeroext %8, ptr noundef %11) #6
  br label %12

12:                                               ; preds = %10, %9
  call void @llvm.lifetime.end.p0(i64 8, ptr nonnull %2) #6
  ret ptr %3
}